; Function Attrs: mustprogress nofree norecurse nosync nounwind willreturn memory(argmem: readwrite) uwtable
define dso_local void @_ZNK4llvm16AArch64Subtarget19overrideSchedPolicyERNS_18MachineSchedPolicyEj(ptr nocapture noundef nonnull readonly align 8 dereferenceable(409552) %0, ptr nocapture noundef nonnull writeonly align 1 dereferenceable(6) %1, i32 %2) unnamed_addr #9 align 2 {
  %4 = getelementptr inbounds nuw i8, ptr %1, i64 2
  store i8 0, ptr %4, align 1
  %5 = getelementptr inbounds nuw i8, ptr %1, i64 3
  store i8 0, ptr %5, align 1
  %6 = getelementptr inbounds nuw i8, ptr %0, i64 298
  %7 = load i8, ptr %6, align 2
  %8 = getelementptr inbounds nuw i8, ptr %1, i64 4
  %9 = and i8 %7, 1
  store i8 %9, ptr %8, align 1
  ret void
}